target datalayout = "e-m:e-p270:32:32-p271:32:32-p272:64:64-i64:64-i128:128-f80:128-n8:16:32:64-S128"
target triple = "x86_64-pc-linux-gnu"

%struct._object = type { %union.anon, ptr }
%union.anon = type { i64 }
%struct.binascii_state = type { ptr, ptr }
%struct.Py_buffer = type { ptr, ptr, i64, i64, i32, i32, ptr, ptr, ptr, ptr, ptr }
%struct.PyVarObject = type { %struct._object, i64 }
%struct.PyBytesObject = type { %struct.PyVarObject, i64, [1 x i8] }
%struct.anon = type { i32, i32 }

@.str.31 = private unnamed_addr constant [18 x i8] c"Odd-length string\00", align 1
@_PyLong_DigitValue = external global [256 x i8], align 16
@.str.32 = private unnamed_addr constant [28 x i8] c"Non-hexadecimal digit found\00", align 1

; Function Attrs: alwaysinline nounwind uwtable
define internal i32 @_Py_IsImmortal(ptr noundef %0) #5 {
  %2 = alloca ptr, align 8
  store ptr %0, ptr %2, align 8, !tbaa !3
  %3 = load ptr, ptr %2, align 8, !tbaa !3
  %4 = getelementptr inbounds nuw %struct._object, ptr %3, i32 0, i32 0
  %5 = getelementptr inbounds nuw %struct.anon, ptr %4, i32 0, i32 0
  %6 = load i32, ptr %5, align 8, !tbaa !36
  %7 = icmp slt i32 %6, 0
  %8 = zext i1 %7 to i32
  ret i32 %8
}

; Function Attrs: alwaysinline nounwind uwtable
define internal void @Py_DECREF(ptr noundef %0) #5 {
  %2 = alloca ptr, align 8
  store ptr %0, ptr %2, align 8, !tbaa !3
  %3 = load ptr, ptr %2, align 8, !tbaa !3
  %4 = call i32 @_Py_IsImmortal(ptr noundef %3)
  %5 = icmp ne i32 %4, 0
  br i1 %5, label %6, label %7

6:                                                ; preds = %1
  br label %16

7:                                                ; preds = %1
  %8 = load ptr, ptr %2, align 8, !tbaa !3
  %9 = getelementptr inbounds nuw %struct._object, ptr %8, i32 0, i32 0
  %10 = getelementptr inbounds nuw %struct.anon, ptr %9, i32 0, i32 0
  %11 = load i32, ptr %10, align 8, !tbaa !36
  %12 = add i32 %11, -1
  store i32 %12, ptr %10, align 8, !tbaa !36
  %13 = icmp eq i32 %12, 0
  br i1 %13, label %14, label %16

14:                                               ; preds = %7
  %15 = load ptr, ptr %2, align 8, !tbaa !3
  call void @_Py_Dealloc(ptr noundef %15)
  br label %16

16:                                               ; preds = %6, %14, %7
  ret void
}

; Function Attrs: inlinehint nounwind uwtable
define internal ptr @PyBytes_AS_STRING(ptr noundef %0) #4 {
  %2 = alloca ptr, align 8
  store ptr %0, ptr %2, align 8, !tbaa !3
  %3 = load ptr, ptr %2, align 8, !tbaa !3
  %4 = getelementptr inbounds nuw %struct.PyBytesObject, ptr %3, i32 0, i32 2
  %5 = getelementptr inbounds [1 x i8], ptr %4, i64 0, i64 0
  ret ptr %5
}

; Function Attrs: inlinehint nounwind uwtable
define internal ptr @get_binascii_state(ptr noundef %0) #4 {
  %2 = alloca ptr, align 8
  store ptr %0, ptr %2, align 8, !tbaa !3
  %3 = load ptr, ptr %2, align 8, !tbaa !3
  %4 = call ptr @PyModule_GetState(ptr noundef %3)
  ret ptr %4
}

; Function Attrs: nounwind uwtable
define internal ptr @binascii_a2b_hex_impl(ptr noundef %0, ptr noundef %1) #0 {
  %3 = alloca ptr, align 8
  %4 = alloca ptr, align 8
  %5 = alloca ptr, align 8
  %6 = alloca ptr, align 8
  %7 = alloca i64, align 8
  %8 = alloca ptr, align 8
  %9 = alloca ptr, align 8
  %10 = alloca i64, align 8
  %11 = alloca i64, align 8
  %12 = alloca ptr, align 8
  %13 = alloca i32, align 4
  %14 = alloca i32, align 4
  %15 = alloca i32, align 4
  store ptr %0, ptr %4, align 8, !tbaa !3
  store ptr %1, ptr %5, align 8, !tbaa !8
  call void @llvm.lifetime.start.p0(i64 8, ptr %6) #7
  call void @llvm.lifetime.start.p0(i64 8, ptr %7) #7
  call void @llvm.lifetime.start.p0(i64 8, ptr %8) #7
  call void @llvm.lifetime.start.p0(i64 8, ptr %9) #7
  call void @llvm.lifetime.start.p0(i64 8, ptr %10) #7
  call void @llvm.lifetime.start.p0(i64 8, ptr %11) #7
  call void @llvm.lifetime.start.p0(i64 8, ptr %12) #7
  %16 = load ptr, ptr %5, align 8, !tbaa !8
  %17 = getelementptr inbounds nuw %struct.Py_buffer, ptr %16, i32 0, i32 0
  %18 = load ptr, ptr %17, align 8, !tbaa !24
  store ptr %18, ptr %6, align 8, !tbaa !35
  %19 = load ptr, ptr %5, align 8, !tbaa !8
  %20 = getelementptr inbounds nuw %struct.Py_buffer, ptr %19, i32 0, i32 2
  %21 = load i64, ptr %20, align 8, !tbaa !25
  store i64 %21, ptr %7, align 8, !tbaa !23
  %22 = load i64, ptr %7, align 8, !tbaa !23
  %23 = srem i64 %22, 2
  %24 = icmp ne i64 %23, 0
  br i1 %24, label %25, label %35

25:                                               ; preds = %2
  %26 = load ptr, ptr %4, align 8, !tbaa !3
  %27 = call ptr @get_binascii_state(ptr noundef %26)
  store ptr %27, ptr %12, align 8, !tbaa !9
  %28 = load ptr, ptr %12, align 8, !tbaa !9
  %29 = icmp eq ptr %28, null
  br i1 %29, label %30, label %31

30:                                               ; preds = %25
  store ptr null, ptr %3, align 8
  store i32 1, ptr %13, align 4
  br label %108

31:                                               ; preds = %25
  %32 = load ptr, ptr %12, align 8, !tbaa !9
  %33 = getelementptr inbounds nuw %struct.binascii_state, ptr %32, i32 0, i32 0
  %34 = load ptr, ptr %33, align 8, !tbaa !11
  call void @PyErr_SetString(ptr noundef %34, ptr noundef @.str.31)
  store ptr null, ptr %3, align 8
  store i32 1, ptr %13, align 4
  br label %108

35:                                               ; preds = %2
  %36 = load i64, ptr %7, align 8, !tbaa !23
  %37 = sdiv i64 %36, 2
  %38 = call ptr @PyBytes_FromStringAndSize(ptr noundef null, i64 noundef %37)
  store ptr %38, ptr %8, align 8, !tbaa !3
  %39 = load ptr, ptr %8, align 8, !tbaa !3
  %40 = icmp ne ptr %39, null
  br i1 %40, label %42, label %41

41:                                               ; preds = %35
  store ptr null, ptr %3, align 8
  store i32 1, ptr %13, align 4
  br label %108

42:                                               ; preds = %35
  %43 = load ptr, ptr %8, align 8, !tbaa !3
  %44 = call ptr @PyBytes_AS_STRING(ptr noundef %43)
  store ptr %44, ptr %9, align 8, !tbaa !35
  store i64 0, ptr %11, align 8, !tbaa !23
  store i64 0, ptr %10, align 8, !tbaa !23
  br label %45

45:                                               ; preds = %101, %42
  %46 = load i64, ptr %10, align 8, !tbaa !23
  %47 = load i64, ptr %7, align 8, !tbaa !23
  %48 = icmp slt i64 %46, %47
  br i1 %48, label %49, label %104

49:                                               ; preds = %45
  call void @llvm.lifetime.start.p0(i64 4, ptr %14) #7
  %50 = load ptr, ptr %6, align 8, !tbaa !35
  %51 = load i64, ptr %10, align 8, !tbaa !23
  %52 = getelementptr i8, ptr %50, i64 %51
  %53 = load i8, ptr %52, align 1, !tbaa !36
  %54 = sext i8 %53 to i32
  %55 = and i32 %54, 255
  %56 = trunc i32 %55 to i8
  %57 = zext i8 %56 to i64
  %58 = getelementptr [256 x i8], ptr @_PyLong_DigitValue, i64 0, i64 %57
  %59 = load i8, ptr %58, align 1, !tbaa !36
  %60 = zext i8 %59 to i32
  store i32 %60, ptr %14, align 4, !tbaa !13
  call void @llvm.lifetime.start.p0(i64 4, ptr %15) #7
  %61 = load ptr, ptr %6, align 8, !tbaa !35
  %62 = load i64, ptr %10, align 8, !tbaa !23
  %63 = add i64 %62, 1
  %64 = getelementptr i8, ptr %61, i64 %63
  %65 = load i8, ptr %64, align 1, !tbaa !36
  %66 = sext i8 %65 to i32
  %67 = and i32 %66, 255
  %68 = trunc i32 %67 to i8
  %69 = zext i8 %68 to i64
  %70 = getelementptr [256 x i8], ptr @_PyLong_DigitValue, i64 0, i64 %69
  %71 = load i8, ptr %70, align 1, !tbaa !36
  %72 = zext i8 %71 to i32
  store i32 %72, ptr %15, align 4, !tbaa !13
  %73 = load i32, ptr %14, align 4, !tbaa !13
  %74 = icmp uge i32 %73, 16
  br i1 %74, label %78, label %75

75:                                               ; preds = %49
  %76 = load i32, ptr %15, align 4, !tbaa !13
  %77 = icmp uge i32 %76, 16
  br i1 %77, label %78, label %88

78:                                               ; preds = %75, %49
  %79 = load ptr, ptr %4, align 8, !tbaa !3
  %80 = call ptr @get_binascii_state(ptr noundef %79)
  store ptr %80, ptr %12, align 8, !tbaa !9
  %81 = load ptr, ptr %12, align 8, !tbaa !9
  %82 = icmp eq ptr %81, null
  br i1 %82, label %83, label %84

83:                                               ; preds = %78
  store ptr null, ptr %3, align 8
  store i32 1, ptr %13, align 4
  br label %98

84:                                               ; preds = %78
  %85 = load ptr, ptr %12, align 8, !tbaa !9
  %86 = getelementptr inbounds nuw %struct.binascii_state, ptr %85, i32 0, i32 0
  %87 = load ptr, ptr %86, align 8, !tbaa !11
  call void @PyErr_SetString(ptr noundef %87, ptr noundef @.str.32)
  store i32 5, ptr %13, align 4
  br label %98

88:                                               ; preds = %75
  %89 = load i32, ptr %14, align 4, !tbaa !13
  %90 = shl i32 %89, 4
  %91 = load i32, ptr %15, align 4, !tbaa !13
  %92 = add i32 %90, %91
  %93 = trunc i32 %92 to i8
  %94 = load ptr, ptr %9, align 8, !tbaa !35
  %95 = load i64, ptr %11, align 8, !tbaa !23
  %96 = add i64 %95, 1
  store i64 %96, ptr %11, align 8, !tbaa !23
  %97 = getelementptr i8, ptr %94, i64 %95
  store i8 %93, ptr %97, align 1, !tbaa !36
  store i32 0, ptr %13, align 4
  br label %98

98:                                               ; preds = %84, %88, %83
  call void @llvm.lifetime.end.p0(i64 4, ptr %15) #7
  call void @llvm.lifetime.end.p0(i64 4, ptr %14) #7
  %99 = load i32, ptr %13, align 4
  switch i32 %99, label %108 [
    i32 0, label %100
    i32 5, label %106
  ]

100:                                              ; preds = %98
  br label %101

101:                                              ; preds = %100
  %102 = load i64, ptr %10, align 8, !tbaa !23
  %103 = add i64 %102, 2
  store i64 %103, ptr %10, align 8, !tbaa !23
  br label %45, !llvm.loop !52

104:                                              ; preds = %45
  %105 = load ptr, ptr %8, align 8, !tbaa !3
  store ptr %105, ptr %3, align 8
  store i32 1, ptr %13, align 4
  br label %108

106:                                              ; preds = %98
  %107 = load ptr, ptr %8, align 8, !tbaa !3
  call void @Py_DECREF(ptr noundef %107)
  store ptr null, ptr %3, align 8
  store i32 1, ptr %13, align 4
  br label %108

108:                                              ; preds = %106, %104, %98, %41, %31, %30
  call void @llvm.lifetime.end.p0(i64 8, ptr %12) #7
  call void @llvm.lifetime.end.p0(i64 8, ptr %11) #7
  call void @llvm.lifetime.end.p0(i64 8, ptr %10) #7
  call void @llvm.lifetime.end.p0(i64 8, ptr %9) #7
  call void @llvm.lifetime.end.p0(i64 8, ptr %8) #7
  call void @llvm.lifetime.end.p0(i64 8, ptr %7) #7
  call void @llvm.lifetime.end.p0(i64 8, ptr %6) #7
  %109 = load ptr, ptr %3, align 8
  ret ptr %109
}