; Function Attrs: nounwind uwtable
define internal fastcc ptr @binascii_a2b_hex_impl(ptr noundef %0, ptr readonly captures(none) %.0.val, i64 %.16.val) unnamed_addr #0 {
  %2 = and i64 %.16.val, 1
  %.not = icmp eq i64 %2, 0
  br i1 %.not, label %8, label %3

3:                                                ; preds = %1
  %4 = tail call ptr @PyModule_GetState(ptr noundef %0) #5
  %5 = icmp eq ptr %4, null
  br i1 %5, label %Py_DECREF.exit, label %6

6:                                                ; preds = %3
  %7 = load ptr, ptr %4, align 8, !tbaa !3
  tail call void @PyErr_SetString(ptr noundef %7, ptr noundef nonnull @.str.31) #5
  br label %Py_DECREF.exit

8:                                                ; preds = %1
  %9 = ashr exact i64 %.16.val, 1
  %10 = tail call ptr @PyBytes_FromStringAndSize(ptr noundef null, i64 noundef %9) #5
  %.not38 = icmp eq ptr %10, null
  br i1 %.not38, label %Py_DECREF.exit, label %11

11:                                               ; preds = %8
  %12 = getelementptr inbounds nuw i8, ptr %10, i64 32
  %13 = icmp sgt i64 %.16.val, 0
  br i1 %13, label %.lr.ph, label %Py_DECREF.exit

.lr.ph:                                           ; preds = %11, %30
  %.0298 = phi i64 [ %35, %30 ], [ 0, %11 ]
  %.0317 = phi i64 [ %33, %30 ], [ 0, %11 ]
  %14 = getelementptr i8, ptr %.0.val, i64 %.0298
  %15 = load i8, ptr %14, align 1, !tbaa !11
  %16 = zext i8 %15 to i64
  %17 = getelementptr [256 x i8], ptr @_PyLong_DigitValue, i64 0, i64 %16
  %18 = load i8, ptr %17, align 1, !tbaa !11
  %19 = or disjoint i64 %.0298, 1
  %20 = getelementptr i8, ptr %.0.val, i64 %19
  %21 = load i8, ptr %20, align 1, !tbaa !11
  %22 = zext i8 %21 to i64
  %23 = getelementptr [256 x i8], ptr @_PyLong_DigitValue, i64 0, i64 %22
  %24 = load i8, ptr %23, align 1, !tbaa !11
  %25 = icmp ugt i8 %18, 15
  %26 = icmp ugt i8 %24, 15
  %or.cond = select i1 %25, i1 true, i1 %26
  br i1 %or.cond, label %27, label %30

27:                                               ; preds = %.lr.ph
  %28 = tail call ptr @PyModule_GetState(ptr noundef %0) #5
  %29 = icmp eq ptr %28, null
  br i1 %29, label %Py_DECREF.exit, label %37

30:                                               ; preds = %.lr.ph
  %31 = shl nuw i8 %18, 4
  %32 = or disjoint i8 %24, %31
  %33 = add i64 %.0317, 1
  %34 = getelementptr i8, ptr %12, i64 %.0317
  store i8 %32, ptr %34, align 1, !tbaa !11
  %35 = add i64 %.0298, 2
  %36 = icmp slt i64 %35, %.16.val
  br i1 %36, label %.lr.ph, label %Py_DECREF.exit, !llvm.loop !48

37:                                               ; preds = %27
  %38 = load ptr, ptr %28, align 8, !tbaa !3
  tail call void @PyErr_SetString(ptr noundef %38, ptr noundef nonnull @.str.32) #5
  %39 = load i32, ptr %10, align 8, !tbaa !11
  %.not.i = icmp sgt i32 %39, -1
  br i1 %.not.i, label %40, label %Py_DECREF.exit

40:                                               ; preds = %37
  %41 = add nsw i32 %39, -1
  store i32 %41, ptr %10, align 8, !tbaa !11
  %42 = icmp eq i32 %41, 0
  br i1 %42, label %43, label %Py_DECREF.exit

43:                                               ; preds = %40
  tail call void @_Py_Dealloc(ptr noundef nonnull %10) #5
  br label %Py_DECREF.exit

Py_DECREF.exit:                                   ; preds = %30, %11, %27, %43, %40, %37, %8, %3, %6
  %.0 = phi ptr [ null, %6 ], [ null, %3 ], [ null, %8 ], [ null, %37 ], [ null, %40 ], [ null, %43 ], [ null, %27 ], [ %10, %11 ], [ %10, %30 ]
  ret ptr %.0
}